target datalayout = "e-m:e-p270:32:32-p271:32:32-p272:64:64-i64:64-i128:128-f80:128-n8:16:32:64-S128"
target triple = "x86_64-pc-linux-gnu"

%struct._bacapp_info_value_t = type { ptr, ptr, ptr, ptr }
%struct._packet_info = type { ptr, ptr, i32, i32, %struct.nstime_t, %struct.nstime_t, %struct.nstime_t, i8, ptr, ptr, ptr, ptr, %struct._address, %struct._address, %struct._address, %struct._address, %struct._address, %struct._address, i32, ptr, i8, [3 x i8], %struct.anon, i32, i32, i32, i32, ptr, i8, ptr, ptr, i16, i16, i32, i32, i16, i32, i32, ptr, ptr, ptr, i8, i8, i16, i16, i16, i32, i16, i16, ptr, ptr, ptr, ptr, ptr, i32, i32 }
%struct.nstime_t = type { i64, i32 }
%struct._address = type { i32, i32, ptr, ptr }
%struct.anon = type { i8, [3 x i8] }

@hf_bacapp_objectType = internal global i32 0, align 4
@hf_bacapp_instanceNumber = internal global i32 0, align 4
@ett_bacapp_tag = internal global i32 0, align 4
@bacinfo = hidden global %struct._bacapp_info_value_t zeroinitializer, align 8
@ASHRAE_Reserved_Fmt = internal constant [32 x i8] c"(%d) Reserved for Use by ASHRAE\00", align 16
@Vendor_Proprietary_Fmt = internal constant [30 x i8] c"(%d) Vendor Proprietary Value\00", align 16
@object_type = internal global i32 4096, align 4
@.str.2661 = private unnamed_addr constant [9 x i8] c"%s%s, %u\00", align 1
@.str.2662 = private unnamed_addr constant [7 x i8] c"%s,%u \00", align 1
@.str.2663 = private unnamed_addr constant [16 x i8] c"Instance ID: %u\00", align 1

; Function Attrs: nounwind null_pointer_is_valid sspstrong uwtable
define internal i32 @updateBacnetInfoValue(i32 noundef %0, ptr noundef %1) #3 {
  %3 = alloca i32, align 4
  %4 = alloca i32, align 4
  %5 = alloca ptr, align 8
  store i32 %0, ptr %4, align 4
  store ptr %1, ptr %5, align 8
  %6 = load i32, ptr %4, align 4
  %7 = icmp eq i32 %6, 0
  br i1 %7, label %8, label %10

8:                                                ; preds = %2
  %9 = load ptr, ptr %5, align 8
  store ptr %9, ptr @bacinfo, align 8
  store i32 0, ptr %3, align 4
  br label %26

10:                                               ; preds = %2
  %11 = load i32, ptr %4, align 4
  %12 = icmp eq i32 %11, 1
  br i1 %12, label %13, label %15

13:                                               ; preds = %10
  %14 = load ptr, ptr %5, align 8
  store ptr %14, ptr getelementptr inbounds nuw (%struct._bacapp_info_value_t, ptr @bacinfo, i32 0, i32 1), align 8
  store i32 0, ptr %3, align 4
  br label %26

15:                                               ; preds = %10
  %16 = load i32, ptr %4, align 4
  %17 = icmp eq i32 %16, 4
  br i1 %17, label %18, label %20

18:                                               ; preds = %15
  %19 = load ptr, ptr %5, align 8
  store ptr %19, ptr getelementptr inbounds nuw (%struct._bacapp_info_value_t, ptr @bacinfo, i32 0, i32 3), align 8
  store i32 0, ptr %3, align 4
  br label %26

20:                                               ; preds = %15
  %21 = load i32, ptr %4, align 4
  %22 = icmp eq i32 %21, 2
  br i1 %22, label %23, label %25

23:                                               ; preds = %20
  %24 = load ptr, ptr %5, align 8
  store ptr %24, ptr getelementptr inbounds nuw (%struct._bacapp_info_value_t, ptr @bacinfo, i32 0, i32 2), align 8
  store i32 0, ptr %3, align 4
  br label %26

25:                                               ; preds = %20
  store i32 -1, ptr %3, align 4
  br label %26

26:                                               ; preds = %25, %23, %18, %13, %8
  %27 = load i32, ptr %3, align 4
  ret i32 %27
}

; Function Attrs: nounwind null_pointer_is_valid sspstrong uwtable
define internal i32 @object_id_instance(i32 noundef %0) #3 {
  %2 = alloca i32, align 4
  store i32 %0, ptr %2, align 4
  %3 = load i32, ptr %2, align 4
  %4 = and i32 %3, 4194303
  ret i32 %4
}

; Function Attrs: null_pointer_is_valid sspstrong uwtable
define internal ptr @val_to_split_str(i32 noundef %0, i32 noundef %1, ptr noundef %2, ptr noundef %3, ptr noundef %4) #0 {
  %6 = alloca ptr, align 8
  %7 = alloca i32, align 4
  %8 = alloca i32, align 4
  %9 = alloca ptr, align 8
  %10 = alloca ptr, align 8
  %11 = alloca ptr, align 8
  store i32 %0, ptr %7, align 4
  store i32 %1, ptr %8, align 4
  store ptr %2, ptr %9, align 8
  store ptr %3, ptr %10, align 8
  store ptr %4, ptr %11, align 8
  %12 = load i32, ptr %7, align 4
  %13 = load i32, ptr %8, align 4
  %14 = icmp ult i32 %12, %13
  br i1 %14, label %15, label %20

15:                                               ; preds = %5
  %16 = load i32, ptr %7, align 4
  %17 = load ptr, ptr %9, align 8
  %18 = load ptr, ptr %10, align 8
  %19 = call ptr @val_to_str(i32 noundef %16, ptr noundef %17, ptr noundef %18)
  store ptr %19, ptr %6, align 8
  br label %25

20:                                               ; preds = %5
  %21 = load i32, ptr %7, align 4
  %22 = load ptr, ptr %9, align 8
  %23 = load ptr, ptr %11, align 8
  %24 = call ptr @val_to_str(i32 noundef %21, ptr noundef %22, ptr noundef %23)
  store ptr %24, ptr %6, align 8
  br label %25

25:                                               ; preds = %20, %15
  %26 = load ptr, ptr %6, align 8
  ret ptr %26
}

; Function Attrs: nounwind null_pointer_is_valid sspstrong uwtable
define internal i32 @object_id_type(i32 noundef %0) #3 {
  %2 = alloca i32, align 4
  store i32 %0, ptr %2, align 4
  %3 = load i32, ptr %2, align 4
  %4 = lshr i32 %3, 22
  %5 = and i32 %4, 1023
  ret i32 %5
}

; Function Attrs: null_pointer_is_valid sspstrong uwtable
define internal i32 @fTagHeader(ptr noundef %0, ptr noundef %1, i32 noundef %2, ptr noundef %3, ptr noundef %4, ptr noundef %5) #0 {
  %7 = alloca ptr, align 8
  %8 = alloca ptr, align 8
  %9 = alloca i32, align 4
  %10 = alloca ptr, align 8
  %11 = alloca ptr, align 8
  %12 = alloca ptr, align 8
  store ptr %0, ptr %7, align 8
  store ptr %1, ptr %8, align 8
  store i32 %2, ptr %9, align 4
  store ptr %3, ptr %10, align 8
  store ptr %4, ptr %11, align 8
  store ptr %5, ptr %12, align 8
  %13 = load ptr, ptr %7, align 8
  %14 = load ptr, ptr %8, align 8
  %15 = load i32, ptr %9, align 4
  %16 = load ptr, ptr %10, align 8
  %17 = load ptr, ptr %11, align 8
  %18 = load ptr, ptr %12, align 8
  %19 = call i32 @fTagHeaderTree(ptr noundef %13, ptr noundef %14, ptr noundef null, i32 noundef %15, ptr noundef %16, ptr noundef %17, ptr noundef %18)
  ret i32 %19
}

; Function Attrs: null_pointer_is_valid sspstrong uwtable
define internal i32 @fObjectIdentifier(ptr noundef %0, ptr noundef %1, ptr noundef %2, i32 noundef %3, ptr noundef %4) #0 {
  %6 = alloca ptr, align 8
  %7 = alloca ptr, align 8
  %8 = alloca ptr, align 8
  %9 = alloca i32, align 4
  %10 = alloca ptr, align 8
  %11 = alloca i8, align 1
  %12 = alloca i8, align 1
  %13 = alloca i32, align 4
  %14 = alloca i32, align 4
  %15 = alloca ptr, align 8
  %16 = alloca i32, align 4
  store ptr %0, ptr %6, align 8
  store ptr %1, ptr %7, align 8
  store ptr %2, ptr %8, align 8
  store i32 %3, ptr %9, align 4
  store ptr %4, ptr %10, align 8
  call void @llvm.lifetime.start.p0(i64 1, ptr %11) #7
  call void @llvm.lifetime.start.p0(i64 1, ptr %12) #7
  call void @llvm.lifetime.start.p0(i64 4, ptr %13) #7
  call void @llvm.lifetime.start.p0(i64 4, ptr %14) #7
  call void @llvm.lifetime.start.p0(i64 8, ptr %15) #7
  call void @llvm.lifetime.start.p0(i64 4, ptr %16) #7
  %17 = load ptr, ptr %6, align 8
  %18 = load ptr, ptr %7, align 8
  %19 = load i32, ptr %9, align 4
  %20 = call i32 @fTagHeader(ptr noundef %17, ptr noundef %18, i32 noundef %19, ptr noundef %11, ptr noundef %12, ptr noundef %13)
  store i32 %20, ptr %14, align 4
  %21 = load ptr, ptr %6, align 8
  %22 = load i32, ptr %9, align 4
  %23 = load i32, ptr %14, align 4
  %24 = add i32 %22, %23
  %25 = call i32 @tvb_get_ntohl(ptr noundef %21, i32 noundef %24)
  store i32 %25, ptr %16, align 4
  %26 = load i32, ptr %16, align 4
  %27 = call i32 @object_id_type(i32 noundef %26)
  store i32 %27, ptr @object_type, align 4
  %28 = load ptr, ptr %8, align 8
  %29 = load ptr, ptr %6, align 8
  %30 = load i32, ptr %9, align 4
  %31 = load i32, ptr %14, align 4
  %32 = add i32 %31, 4
  %33 = load i32, ptr @ett_bacapp_tag, align 4
  %34 = load ptr, ptr %10, align 8
  %35 = load i32, ptr @object_type, align 4
  %36 = call ptr @val_to_split_str(i32 noundef %35, i32 noundef 128, ptr noundef @BACnetObjectType, ptr noundef @ASHRAE_Reserved_Fmt, ptr noundef @Vendor_Proprietary_Fmt)
  %37 = load i32, ptr %16, align 4
  %38 = call i32 @object_id_instance(i32 noundef %37)
  %39 = call ptr (ptr, ptr, i32, i32, i32, ptr, ptr, ...) @proto_tree_add_subtree_format(ptr noundef %28, ptr noundef %29, i32 noundef %30, i32 noundef %32, i32 noundef %33, ptr noundef null, ptr noundef @.str.2661, ptr noundef %34, ptr noundef %36, i32 noundef %38)
  store ptr %39, ptr %15, align 8
  %40 = load ptr, ptr %7, align 8
  %41 = getelementptr inbounds nuw %struct._packet_info, ptr %40, i32 0, i32 1
  %42 = load ptr, ptr %41, align 8
  %43 = load i32, ptr @object_type, align 4
  %44 = call ptr @val_to_split_str(i32 noundef %43, i32 noundef 128, ptr noundef @BACnetObjectType, ptr noundef @ASHRAE_Reserved_Fmt, ptr noundef @Vendor_Proprietary_Fmt)
  %45 = load i32, ptr %16, align 4
  %46 = call i32 @object_id_instance(i32 noundef %45)
  call void (ptr, i32, ptr, ...) @col_append_fstr(ptr noundef %42, i32 noundef 25, ptr noundef @.str.2662, ptr noundef %44, i32 noundef %46)
  %47 = load ptr, ptr %7, align 8
  %48 = getelementptr inbounds nuw %struct._packet_info, ptr %47, i32 0, i32 51
  %49 = load ptr, ptr %48, align 8
  %50 = load i32, ptr @object_type, align 4
  %51 = call ptr @val_to_split_str(i32 noundef %50, i32 noundef 128, ptr noundef @BACnetObjectType, ptr noundef @ASHRAE_Reserved_Fmt, ptr noundef @Vendor_Proprietary_Fmt)
  %52 = call noalias ptr @wmem_strdup(ptr noundef %49, ptr noundef %51)
  %53 = call i32 @updateBacnetInfoValue(i32 noundef 4, ptr noundef %52)
  %54 = load ptr, ptr %7, align 8
  %55 = getelementptr inbounds nuw %struct._packet_info, ptr %54, i32 0, i32 51
  %56 = load ptr, ptr %55, align 8
  %57 = load i32, ptr %16, align 4
  %58 = call i32 @object_id_instance(i32 noundef %57)
  %59 = call noalias ptr (ptr, ptr, ...) @wmem_strdup_printf(ptr noundef %56, ptr noundef @.str.2663, i32 noundef %58)
  %60 = call i32 @updateBacnetInfoValue(i32 noundef 2, ptr noundef %59)
  %61 = load ptr, ptr %6, align 8
  %62 = load ptr, ptr %7, align 8
  %63 = load ptr, ptr %15, align 8
  %64 = load i32, ptr %9, align 4
  %65 = call i32 @fTagHeaderTree(ptr noundef %61, ptr noundef %62, ptr noundef %63, i32 noundef %64, ptr noundef %11, ptr noundef %12, ptr noundef %13)
  %66 = load i32, ptr %14, align 4
  %67 = load i32, ptr %9, align 4
  %68 = add i32 %67, %66
  store i32 %68, ptr %9, align 4
  %69 = load ptr, ptr %15, align 8
  %70 = load i32, ptr @hf_bacapp_objectType, align 4
  %71 = load ptr, ptr %6, align 8
  %72 = load i32, ptr %9, align 4
  %73 = call ptr @proto_tree_add_item(ptr noundef %69, i32 noundef %70, ptr noundef %71, i32 noundef %72, i32 noundef 4, i32 noundef 0)
  %74 = load ptr, ptr %15, align 8
  %75 = load i32, ptr @hf_bacapp_instanceNumber, align 4
  %76 = load ptr, ptr %6, align 8
  %77 = load i32, ptr %9, align 4
  %78 = call ptr @proto_tree_add_item(ptr noundef %74, i32 noundef %75, ptr noundef %76, i32 noundef %77, i32 noundef 4, i32 noundef 0)
  %79 = load i32, ptr %9, align 4
  %80 = add i32 %79, 4
  store i32 %80, ptr %9, align 4
  %81 = load i32, ptr %9, align 4
  call void @llvm.lifetime.end.p0(i64 4, ptr %16) #7
  call void @llvm.lifetime.end.p0(i64 8, ptr %15) #7
  call void @llvm.lifetime.end.p0(i64 4, ptr %14) #7
  call void @llvm.lifetime.end.p0(i64 4, ptr %13) #7
  call void @llvm.lifetime.end.p0(i64 1, ptr %12) #7
  call void @llvm.lifetime.end.p0(i64 1, ptr %11) #7
  ret i32 %81
}