; Function Attrs: null_pointer_is_valid sspstrong uwtable
define internal fastcc noundef i32 @fObjectIdentifier(ptr noundef nonnull %0, ptr noundef %1, ptr noundef %2, i32 noundef %3, ptr noundef %4) unnamed_addr #0 {
  %6 = alloca i8, align 1
  %7 = alloca i8, align 1
  %8 = alloca i32, align 4
  call void @llvm.lifetime.start.p0(i64 1, ptr nonnull %6) #6
  call void @llvm.lifetime.start.p0(i64 1, ptr nonnull %7) #6
  call void @llvm.lifetime.start.p0(i64 4, ptr nonnull %8) #6
  %9 = call fastcc range(i32 1, 8) i32 @fTagHeaderTree(ptr noundef nonnull %0, ptr noundef %1, ptr noundef null, i32 noundef %3, ptr noundef nonnull %6, ptr noundef nonnull %7, ptr noundef nonnull %8)
  %10 = add i32 %9, %3
  %11 = tail call i32 @tvb_get_ntohl(ptr noundef nonnull %0, i32 noundef %10)
  %12 = lshr i32 %11, 22
  store i32 %12, ptr @object_type, align 4
  %13 = add nuw nsw i32 %9, 4
  %14 = load i32, ptr @ett_bacapp_tag, align 4
  %15 = icmp ult i32 %11, 536870912
  %ASHRAE_Reserved_Fmt.Vendor_Proprietary_Fmt.i = select i1 %15, ptr @ASHRAE_Reserved_Fmt, ptr @Vendor_Proprietary_Fmt
  %16 = tail call ptr @val_to_str(i32 noundef %12, ptr noundef nonnull @BACnetObjectType, ptr noundef nonnull %ASHRAE_Reserved_Fmt.Vendor_Proprietary_Fmt.i)
  %17 = and i32 %11, 4194303
  %18 = tail call ptr (ptr, ptr, i32, i32, i32, ptr, ptr, ...) @proto_tree_add_subtree_format(ptr noundef %2, ptr noundef nonnull %0, i32 noundef %3, i32 noundef %13, i32 noundef %14, ptr noundef null, ptr noundef nonnull @.str.2661, ptr noundef %4, ptr noundef %16, i32 noundef %17)
  %19 = getelementptr inbounds nuw i8, ptr %1, i64 8
  %20 = load ptr, ptr %19, align 8
  %21 = load i32, ptr @object_type, align 4
  %22 = icmp ult i32 %21, 128
  %ASHRAE_Reserved_Fmt.Vendor_Proprietary_Fmt.i31 = select i1 %22, ptr @ASHRAE_Reserved_Fmt, ptr @Vendor_Proprietary_Fmt
  %23 = tail call ptr @val_to_str(i32 noundef %21, ptr noundef nonnull @BACnetObjectType, ptr noundef nonnull %ASHRAE_Reserved_Fmt.Vendor_Proprietary_Fmt.i31)
  tail call void (ptr, i32, ptr, ...) @col_append_fstr(ptr noundef %20, i32 noundef 25, ptr noundef nonnull @.str.2662, ptr noundef %23, i32 noundef %17)
  %24 = getelementptr inbounds nuw i8, ptr %1, i64 408
  %25 = load ptr, ptr %24, align 8
  %26 = load i32, ptr @object_type, align 4
  %27 = icmp ult i32 %26, 128
  %ASHRAE_Reserved_Fmt.Vendor_Proprietary_Fmt.i32 = select i1 %27, ptr @ASHRAE_Reserved_Fmt, ptr @Vendor_Proprietary_Fmt
  %28 = tail call ptr @val_to_str(i32 noundef %26, ptr noundef nonnull @BACnetObjectType, ptr noundef nonnull %ASHRAE_Reserved_Fmt.Vendor_Proprietary_Fmt.i32)
  %29 = tail call noalias ptr @wmem_strdup(ptr noundef %25, ptr noundef %28)
  store ptr %29, ptr getelementptr inbounds nuw (i8, ptr @bacinfo, i64 24), align 8
  %30 = load ptr, ptr %24, align 8
  %31 = tail call noalias ptr (ptr, ptr, ...) @wmem_strdup_printf(ptr noundef %30, ptr noundef nonnull @.str.2663, i32 noundef %17)
  store ptr %31, ptr getelementptr inbounds nuw (i8, ptr @bacinfo, i64 16), align 8
  %32 = call fastcc i32 @fTagHeaderTree(ptr noundef %0, ptr noundef %1, ptr noundef %18, i32 noundef %3, ptr noundef nonnull %6, ptr noundef nonnull %7, ptr noundef nonnull %8)
  %33 = load i32, ptr @hf_bacapp_objectType, align 4
  %34 = tail call ptr @proto_tree_add_item(ptr noundef %18, i32 noundef %33, ptr noundef nonnull %0, i32 noundef %10, i32 noundef 4, i32 noundef 0)
  %35 = load i32, ptr @hf_bacapp_instanceNumber, align 4
  %36 = tail call ptr @proto_tree_add_item(ptr noundef %18, i32 noundef %35, ptr noundef nonnull %0, i32 noundef %10, i32 noundef 4, i32 noundef 0)
  %37 = add i32 %10, 4
  call void @llvm.lifetime.end.p0(i64 4, ptr nonnull %8) #6
  call void @llvm.lifetime.end.p0(i64 1, ptr nonnull %7) #6
  call void @llvm.lifetime.end.p0(i64 1, ptr nonnull %6) #6
  ret i32 %37
}